target datalayout = "e-m:e-p270:32:32-p271:32:32-p272:64:64-i64:64-i128:128-f80:128-n8:16:32:64-S128"
target triple = "x86_64-pc-linux-gnu"

%class.btGeneric6DofConstraint = type <{ %class.btTypedConstraint, %class.btTransform, %class.btTransform, [3 x %class.btJacobianEntry], [3 x %class.btJacobianEntry], %class.btTranslationalLimitMotor, [3 x %class.btRotationalLimitMotor], float, %class.btTransform, %class.btTransform, %class.btVector3, [3 x %class.btVector3], %class.btVector3, float, float, i8, [3 x i8], %class.btVector3, i8, i8, [2 x i8], i32, i8, [3 x i8] }>
%class.btTypedConstraint = type { ptr, %struct.btTypedObject, i32, %union.anon.0, float, i8, i8, i32, ptr, ptr, float, float, ptr }
%struct.btTypedObject = type { i32 }
%union.anon.0 = type { ptr }
%class.btJacobianEntry = type { %class.btVector3, %class.btVector3, %class.btVector3, %class.btVector3, %class.btVector3, float }
%class.btTranslationalLimitMotor = type { %class.btVector3, %class.btVector3, %class.btVector3, float, float, float, %class.btVector3, %class.btVector3, %class.btVector3, [3 x i8], %class.btVector3, %class.btVector3, %class.btVector3, %class.btVector3, [3 x i32] }
%class.btRotationalLimitMotor = type { float, float, float, float, float, float, float, float, float, float, float, i8, float, float, i32, float }
%class.btTransform = type { %class.btMatrix3x3, %class.btVector3 }
%class.btMatrix3x3 = type { [3 x %class.btVector3] }
%class.btVector3 = type { [4 x float] }
%"struct.btTypedConstraint::btConstraintInfo2" = type { float, float, ptr, ptr, ptr, ptr, i32, ptr, ptr, ptr, ptr, i32, float }

; Function Attrs: mustprogress nounwind uwtable
define dso_local { <2 x float>, <2 x float> } @_ZNK23btGeneric6DofConstraint7getAxisEi(ptr noundef nonnull align 8 dereferenceable(1333) %0, i32 noundef %1) #1 align 2 {
  %3 = alloca %class.btVector3, align 4
  %4 = alloca ptr, align 8
  %5 = alloca i32, align 4
  store ptr %0, ptr %4, align 8, !tbaa !12
  store i32 %1, ptr %5, align 4, !tbaa !9
  %6 = load ptr, ptr %4, align 8
  %7 = getelementptr inbounds nuw %class.btGeneric6DofConstraint, ptr %6, i32 0, i32 11
  %8 = load i32, ptr %5, align 4, !tbaa !9
  %9 = sext i32 %8 to i64
  %10 = getelementptr inbounds [3 x %class.btVector3], ptr %7, i64 0, i64 %9
  call void @llvm.memcpy.p0.p0.i64(ptr align 4 %3, ptr align 8 %10, i64 16, i1 false), !tbaa.struct !37
  %11 = getelementptr inbounds nuw %class.btVector3, ptr %3, i32 0, i32 0
  %12 = load { <2 x float>, <2 x float> }, ptr %11, align 4
  ret { <2 x float>, <2 x float> } %12
}

; Function Attrs: mustprogress nounwind uwtable
define linkonce_odr dso_local noundef zeroext i1 @_ZNK22btRotationalLimitMotor16needApplyTorquesEv(ptr noundef nonnull align 4 dereferenceable(64) %0) #1 comdat align 2 {
  %2 = alloca i1, align 1
  %3 = alloca ptr, align 8
  store ptr %0, ptr %3, align 8, !tbaa !48
  %4 = load ptr, ptr %3, align 8
  %5 = getelementptr inbounds nuw %class.btRotationalLimitMotor, ptr %4, i32 0, i32 14
  %6 = load i32, ptr %5, align 4, !tbaa !63
  %7 = icmp eq i32 %6, 0
  br i1 %7, label %8, label %15

8:                                                ; preds = %1
  %9 = getelementptr inbounds nuw %class.btRotationalLimitMotor, ptr %4, i32 0, i32 11
  %10 = load i8, ptr %9, align 4, !tbaa !65, !range !22, !noundef !23
  %11 = trunc i8 %10 to i1
  %12 = zext i1 %11 to i32
  %13 = icmp eq i32 %12, 0
  br i1 %13, label %14, label %15

14:                                               ; preds = %8
  store i1 false, ptr %2, align 1
  br label %16

15:                                               ; preds = %8, %1
  store i1 true, ptr %2, align 1
  br label %16

16:                                               ; preds = %15, %14
  %17 = load i1, ptr %2, align 1
  ret i1 %17
}

; Function Attrs: mustprogress nounwind uwtable
define linkonce_odr dso_local noundef ptr @_ZN23btGeneric6DofConstraint23getRotationalLimitMotorEi(ptr noundef nonnull align 8 dereferenceable(1333) %0, i32 noundef %1) #1 comdat align 2 {
  %3 = alloca ptr, align 8
  %4 = alloca i32, align 4
  store ptr %0, ptr %3, align 8, !tbaa !12
  store i32 %1, ptr %4, align 4, !tbaa !9
  %5 = load ptr, ptr %3, align 8
  %6 = getelementptr inbounds nuw %class.btGeneric6DofConstraint, ptr %5, i32 0, i32 6
  %7 = load i32, ptr %4, align 4, !tbaa !9
  %8 = sext i32 %7 to i64
  %9 = getelementptr inbounds [3 x %class.btRotationalLimitMotor], ptr %6, i64 0, i64 %8
  ret ptr %9
}

; Function Attrs: mustprogress uwtable
define dso_local noundef i32 @_ZN23btGeneric6DofConstraint16setAngularLimitsEPN17btTypedConstraint17btConstraintInfo2EiRK11btTransformS5_RK9btVector3S8_S8_S8_(ptr noundef nonnull align 8 dereferenceable(1333) %0, ptr noundef %1, i32 noundef %2, ptr noundef nonnull align 4 dereferenceable(64) %3, ptr noundef nonnull align 4 dereferenceable(64) %4, ptr noundef nonnull align 4 dereferenceable(16) %5, ptr noundef nonnull align 4 dereferenceable(16) %6, ptr noundef nonnull align 4 dereferenceable(16) %7, ptr noundef nonnull align 4 dereferenceable(16) %8) #8 align 2 {
  %10 = alloca ptr, align 8
  %11 = alloca ptr, align 8
  %12 = alloca i32, align 4
  %13 = alloca ptr, align 8
  %14 = alloca ptr, align 8
  %15 = alloca ptr, align 8
  %16 = alloca ptr, align 8
  %17 = alloca ptr, align 8
  %18 = alloca ptr, align 8
  %19 = alloca ptr, align 8
  %20 = alloca i32, align 4
  %21 = alloca i32, align 4
  %22 = alloca %class.btVector3, align 4
  %23 = alloca i32, align 4
  store ptr %0, ptr %10, align 8, !tbaa !12
  store ptr %1, ptr %11, align 8, !tbaa !105
  store i32 %2, ptr %12, align 4, !tbaa !9
  store ptr %3, ptr %13, align 8, !tbaa !16
  store ptr %4, ptr %14, align 8, !tbaa !16
  store ptr %5, ptr %15, align 8, !tbaa !66
  store ptr %6, ptr %16, align 8, !tbaa !66
  store ptr %7, ptr %17, align 8, !tbaa !66
  store ptr %8, ptr %18, align 8, !tbaa !66
  %24 = load ptr, ptr %10, align 8
  call void @llvm.lifetime.start.p0(i64 8, ptr %19) #13
  store ptr %24, ptr %19, align 8, !tbaa !12
  call void @llvm.lifetime.start.p0(i64 4, ptr %20) #13
  %25 = load i32, ptr %12, align 4, !tbaa !9
  store i32 %25, ptr %20, align 4, !tbaa !9
  call void @llvm.lifetime.start.p0(i64 4, ptr %21) #13
  store i32 0, ptr %21, align 4, !tbaa !9
  br label %26

26:                                               ; preds = %108, %9
  %27 = load i32, ptr %21, align 4, !tbaa !9
  %28 = icmp slt i32 %27, 3
  br i1 %28, label %30, label %29

29:                                               ; preds = %26
  call void @llvm.lifetime.end.p0(i64 4, ptr %21) #13
  br label %111

30:                                               ; preds = %26
  %31 = load ptr, ptr %19, align 8, !tbaa !12
  %32 = load i32, ptr %21, align 4, !tbaa !9
  %33 = call noundef ptr @_ZN23btGeneric6DofConstraint23getRotationalLimitMotorEi(ptr noundef nonnull align 8 dereferenceable(1333) %31, i32 noundef %32)
  %34 = call noundef zeroext i1 @_ZNK22btRotationalLimitMotor16needApplyTorquesEv(ptr noundef nonnull align 4 dereferenceable(64) %33)
  br i1 %34, label %35, label %107

35:                                               ; preds = %30
  call void @llvm.lifetime.start.p0(i64 16, ptr %22) #13
  %36 = load ptr, ptr %19, align 8, !tbaa !12
  %37 = load i32, ptr %21, align 4, !tbaa !9
  %38 = call { <2 x float>, <2 x float> } @_ZNK23btGeneric6DofConstraint7getAxisEi(ptr noundef nonnull align 8 dereferenceable(1333) %36, i32 noundef %37)
  %39 = getelementptr inbounds nuw %class.btVector3, ptr %22, i32 0, i32 0
  %40 = getelementptr inbounds nuw { <2 x float>, <2 x float> }, ptr %39, i32 0, i32 0
  %41 = extractvalue { <2 x float>, <2 x float> } %38, 0
  store <2 x float> %41, ptr %40, align 4
  %42 = getelementptr inbounds nuw { <2 x float>, <2 x float> }, ptr %39, i32 0, i32 1
  %43 = extractvalue { <2 x float>, <2 x float> } %38, 1
  store <2 x float> %43, ptr %42, align 4
  call void @llvm.lifetime.start.p0(i64 4, ptr %23) #13
  %44 = getelementptr inbounds nuw %class.btGeneric6DofConstraint, ptr %24, i32 0, i32 21
  %45 = load i32, ptr %44, align 8, !tbaa !35
  %46 = load i32, ptr %21, align 4, !tbaa !9
  %47 = add nsw i32 %46, 3
  %48 = mul nsw i32 %47, 3
  %49 = ashr i32 %45, %48
  store i32 %49, ptr %23, align 4, !tbaa !9
  %50 = load i32, ptr %23, align 4, !tbaa !9
  %51 = and i32 %50, 1
  %52 = icmp ne i32 %51, 0
  br i1 %52, label %64, label %53

53:                                               ; preds = %35
  %54 = load ptr, ptr %11, align 8, !tbaa !105
  %55 = getelementptr inbounds nuw %"struct.btTypedConstraint::btConstraintInfo2", ptr %54, i32 0, i32 8
  %56 = load ptr, ptr %55, align 8, !tbaa !107
  %57 = getelementptr inbounds float, ptr %56, i64 0
  %58 = load float, ptr %57, align 4, !tbaa !42
  %59 = getelementptr inbounds nuw %class.btGeneric6DofConstraint, ptr %24, i32 0, i32 6
  %60 = load i32, ptr %21, align 4, !tbaa !9
  %61 = sext i32 %60 to i64
  %62 = getelementptr inbounds [3 x %class.btRotationalLimitMotor], ptr %59, i64 0, i64 %61
  %63 = getelementptr inbounds nuw %class.btRotationalLimitMotor, ptr %62, i32 0, i32 7
  store float %58, ptr %63, align 4, !tbaa !57
  br label %64

64:                                               ; preds = %53, %35
  %65 = load i32, ptr %23, align 4, !tbaa !9
  %66 = and i32 %65, 2
  %67 = icmp ne i32 %66, 0
  br i1 %67, label %79, label %68

68:                                               ; preds = %64
  %69 = load ptr, ptr %11, align 8, !tbaa !105
  %70 = getelementptr inbounds nuw %"struct.btTypedConstraint::btConstraintInfo2", ptr %69, i32 0, i32 8
  %71 = load ptr, ptr %70, align 8, !tbaa !107
  %72 = getelementptr inbounds float, ptr %71, i64 0
  %73 = load float, ptr %72, align 4, !tbaa !42
  %74 = getelementptr inbounds nuw %class.btGeneric6DofConstraint, ptr %24, i32 0, i32 6
  %75 = load i32, ptr %21, align 4, !tbaa !9
  %76 = sext i32 %75 to i64
  %77 = getelementptr inbounds [3 x %class.btRotationalLimitMotor], ptr %74, i64 0, i64 %76
  %78 = getelementptr inbounds nuw %class.btRotationalLimitMotor, ptr %77, i32 0, i32 9
  store float %73, ptr %78, align 4, !tbaa !59
  br label %79

79:                                               ; preds = %68, %64
  %80 = load i32, ptr %23, align 4, !tbaa !9
  %81 = and i32 %80, 4
  %82 = icmp ne i32 %81, 0
  br i1 %82, label %92, label %83

83:                                               ; preds = %79
  %84 = load ptr, ptr %11, align 8, !tbaa !105
  %85 = getelementptr inbounds nuw %"struct.btTypedConstraint::btConstraintInfo2", ptr %84, i32 0, i32 1
  %86 = load float, ptr %85, align 4, !tbaa !109
  %87 = getelementptr inbounds nuw %class.btGeneric6DofConstraint, ptr %24, i32 0, i32 6
  %88 = load i32, ptr %21, align 4, !tbaa !9
  %89 = sext i32 %88 to i64
  %90 = getelementptr inbounds [3 x %class.btRotationalLimitMotor], ptr %87, i64 0, i64 %89
  %91 = getelementptr inbounds nuw %class.btRotationalLimitMotor, ptr %90, i32 0, i32 8
  store float %86, ptr %91, align 4, !tbaa !58
  br label %92

92:                                               ; preds = %83, %79
  %93 = load ptr, ptr %19, align 8, !tbaa !12
  %94 = load i32, ptr %21, align 4, !tbaa !9
  %95 = call noundef ptr @_ZN23btGeneric6DofConstraint23getRotationalLimitMotorEi(ptr noundef nonnull align 8 dereferenceable(1333) %93, i32 noundef %94)
  %96 = load ptr, ptr %13, align 8, !tbaa !16
  %97 = load ptr, ptr %14, align 8, !tbaa !16
  %98 = load ptr, ptr %15, align 8, !tbaa !66
  %99 = load ptr, ptr %16, align 8, !tbaa !66
  %100 = load ptr, ptr %17, align 8, !tbaa !66
  %101 = load ptr, ptr %18, align 8, !tbaa !66
  %102 = load ptr, ptr %11, align 8, !tbaa !105
  %103 = load i32, ptr %20, align 4, !tbaa !9
  %104 = call noundef i32 @_ZN23btGeneric6DofConstraint21get_limit_motor_info2EP22btRotationalLimitMotorRK11btTransformS4_RK9btVector3S7_S7_S7_PN17btTypedConstraint17btConstraintInfo2EiRS5_ii(ptr noundef nonnull align 8 dereferenceable(1333) %24, ptr noundef %95, ptr noundef nonnull align 4 dereferenceable(64) %96, ptr noundef nonnull align 4 dereferenceable(64) %97, ptr noundef nonnull align 4 dereferenceable(16) %98, ptr noundef nonnull align 4 dereferenceable(16) %99, ptr noundef nonnull align 4 dereferenceable(16) %100, ptr noundef nonnull align 4 dereferenceable(16) %101, ptr noundef %102, i32 noundef %103, ptr noundef nonnull align 4 dereferenceable(16) %22, i32 noundef 1, i32 noundef 0)
  %105 = load i32, ptr %20, align 4, !tbaa !9
  %106 = add nsw i32 %105, %104
  store i32 %106, ptr %20, align 4, !tbaa !9
  call void @llvm.lifetime.end.p0(i64 4, ptr %23) #13
  call void @llvm.lifetime.end.p0(i64 16, ptr %22) #13
  br label %107

107:                                              ; preds = %92, %30
  br label %108

108:                                              ; preds = %107
  %109 = load i32, ptr %21, align 4, !tbaa !9
  %110 = add nsw i32 %109, 1
  store i32 %110, ptr %21, align 4, !tbaa !9
  br label %26, !llvm.loop !110

111:                                              ; preds = %29
  %112 = load i32, ptr %20, align 4, !tbaa !9
  call void @llvm.lifetime.end.p0(i64 4, ptr %20) #13
  call void @llvm.lifetime.end.p0(i64 8, ptr %19) #13
  ret i32 %112
}